target datalayout = "e-m:e-p270:32:32-p271:32:32-p272:64:64-i64:64-i128:128-f80:128-n8:16:32:64-S128"
target triple = "x86_64-pc-linux-gnu"

; Function Attrs: nounwind uwtable
define i32 @dt_has_same_path_basename(ptr noundef %0, ptr noundef %1) #0 {
  %3 = alloca i32, align 4
  %4 = alloca ptr, align 8
  %5 = alloca ptr, align 8
  %6 = alloca ptr, align 8
  %7 = alloca i32, align 4
  %8 = alloca ptr, align 8
  %9 = alloca i32, align 4
  %10 = alloca i32, align 4
  %11 = alloca i32, align 4
  store ptr %0, ptr %4, align 8, !tbaa !6
  store ptr %1, ptr %5, align 8, !tbaa !6
  %12 = load ptr, ptr %4, align 8, !tbaa !6
  %13 = icmp ne ptr %12, null
  br i1 %13, label %14, label %17

14:                                               ; preds = %2
  %15 = load ptr, ptr %5, align 8, !tbaa !6
  %16 = icmp ne ptr %15, null
  br i1 %16, label %18, label %17

17:                                               ; preds = %14, %2
  store i32 0, ptr %3, align 4
  br label %79

18:                                               ; preds = %14
  call void @llvm.lifetime.start.p0(i64 8, ptr %6) #18
  %19 = load ptr, ptr %4, align 8, !tbaa !6
  %20 = call ptr @strrchr(ptr noundef %19, i32 noundef 46) #17
  store ptr %20, ptr %6, align 8, !tbaa !6
  %21 = load ptr, ptr %6, align 8, !tbaa !6
  %22 = icmp ne ptr %21, null
  br i1 %22, label %24, label %23

23:                                               ; preds = %18
  store i32 0, ptr %3, align 4
  store i32 1, ptr %7, align 4
  br label %78

24:                                               ; preds = %18
  call void @llvm.lifetime.start.p0(i64 8, ptr %8) #18
  %25 = load ptr, ptr %5, align 8, !tbaa !6
  %26 = call ptr @strrchr(ptr noundef %25, i32 noundef 46) #17
  store ptr %26, ptr %8, align 8, !tbaa !6
  %27 = load ptr, ptr %8, align 8, !tbaa !6
  %28 = icmp ne ptr %27, null
  br i1 %28, label %30, label %29

29:                                               ; preds = %24
  store i32 0, ptr %3, align 4
  store i32 1, ptr %7, align 4
  br label %77

30:                                               ; preds = %24
  call void @llvm.lifetime.start.p0(i64 4, ptr %9) #18
  %31 = load ptr, ptr %6, align 8, !tbaa !6
  %32 = load ptr, ptr %4, align 8, !tbaa !6
  %33 = ptrtoint ptr %31 to i64
  %34 = ptrtoint ptr %32 to i64
  %35 = sub i64 %33, %34
  %36 = trunc i64 %35 to i32
  store i32 %36, ptr %9, align 4, !tbaa !15
  call void @llvm.lifetime.start.p0(i64 4, ptr %10) #18
  %37 = load ptr, ptr %8, align 8, !tbaa !6
  %38 = load ptr, ptr %5, align 8, !tbaa !6
  %39 = ptrtoint ptr %37 to i64
  %40 = ptrtoint ptr %38 to i64
  %41 = sub i64 %39, %40
  %42 = trunc i64 %41 to i32
  store i32 %42, ptr %10, align 4, !tbaa !15
  %43 = load i32, ptr %9, align 4, !tbaa !15
  %44 = load i32, ptr %10, align 4, !tbaa !15
  %45 = icmp ne i32 %43, %44
  br i1 %45, label %46, label %47

46:                                               ; preds = %30
  store i32 0, ptr %3, align 4
  store i32 1, ptr %7, align 4
  br label %76

47:                                               ; preds = %30
  call void @llvm.lifetime.start.p0(i64 4, ptr %11) #18
  %48 = load i32, ptr %9, align 4, !tbaa !15
  %49 = sub nsw i32 %48, 1
  store i32 %49, ptr %11, align 4, !tbaa !15
  br label %50

50:                                               ; preds = %70, %47
  %51 = load i32, ptr %11, align 4, !tbaa !15
  %52 = icmp sgt i32 %51, 0
  br i1 %52, label %54, label %53

53:                                               ; preds = %50
  store i32 2, ptr %7, align 4
  br label %73

54:                                               ; preds = %50
  %55 = load ptr, ptr %4, align 8, !tbaa !6
  %56 = load i32, ptr %11, align 4, !tbaa !15
  %57 = sext i32 %56 to i64
  %58 = getelementptr inbounds i8, ptr %55, i64 %57
  %59 = load i8, ptr %58, align 1, !tbaa !18
  %60 = sext i8 %59 to i32
  %61 = load ptr, ptr %5, align 8, !tbaa !6
  %62 = load i32, ptr %11, align 4, !tbaa !15
  %63 = sext i32 %62 to i64
  %64 = getelementptr inbounds i8, ptr %61, i64 %63
  %65 = load i8, ptr %64, align 1, !tbaa !18
  %66 = sext i8 %65 to i32
  %67 = icmp ne i32 %60, %66
  br i1 %67, label %68, label %69

68:                                               ; preds = %54
  store i32 0, ptr %3, align 4
  store i32 1, ptr %7, align 4
  br label %73

69:                                               ; preds = %54
  br label %70

70:                                               ; preds = %69
  %71 = load i32, ptr %11, align 4, !tbaa !15
  %72 = add nsw i32 %71, -1
  store i32 %72, ptr %11, align 4, !tbaa !15
  br label %50

73:                                               ; preds = %68, %53
  call void @llvm.lifetime.end.p0(i64 4, ptr %11) #18
  %74 = load i32, ptr %7, align 4
  switch i32 %74, label %76 [
    i32 2, label %75
  ]

75:                                               ; preds = %73
  store i32 1, ptr %3, align 4
  store i32 1, ptr %7, align 4
  br label %76

76:                                               ; preds = %75, %73, %46
  call void @llvm.lifetime.end.p0(i64 4, ptr %10) #18
  call void @llvm.lifetime.end.p0(i64 4, ptr %9) #18
  br label %77

77:                                               ; preds = %76, %29
  call void @llvm.lifetime.end.p0(i64 8, ptr %8) #18
  br label %78

78:                                               ; preds = %77, %23
  call void @llvm.lifetime.end.p0(i64 8, ptr %6) #18
  br label %79

79:                                               ; preds = %78, %17
  %80 = load i32, ptr %3, align 4
  ret i32 %80
}