; Function Attrs: nofree nounwind memory(argmem: read) uwtable
define range(i32 0, 2) i32 @dt_has_same_path_basename(ptr noundef %0, ptr noundef %1) local_unnamed_addr #22 {
  %3 = icmp ne ptr %0, null
  %4 = icmp ne ptr %1, null
  %or.cond = and i1 %3, %4
  br i1 %or.cond, label %5, label %28

5:                                                ; preds = %2
  %6 = tail call ptr @strrchr(ptr noundef nonnull dereferenceable(1) %0, i32 noundef 46) #26
  %.not = icmp eq ptr %6, null
  br i1 %.not, label %28, label %7

7:                                                ; preds = %5
  %8 = tail call ptr @strrchr(ptr noundef nonnull dereferenceable(1) %1, i32 noundef 46) #26
  %.not28 = icmp eq ptr %8, null
  br i1 %.not28, label %28, label %9

9:                                                ; preds = %7
  %10 = ptrtoint ptr %6 to i64
  %11 = ptrtoint ptr %0 to i64
  %12 = sub i64 %10, %11
  %13 = trunc i64 %12 to i32
  %14 = ptrtoint ptr %8 to i64
  %15 = ptrtoint ptr %1 to i64
  %16 = sub i64 %14, %15
  %17 = trunc i64 %16 to i32
  %.not29 = icmp eq i32 %13, %17
  br i1 %.not29, label %.preheader.preheader, label %28

.preheader.preheader:                             ; preds = %9
  %18 = and i64 %12, 4294967295
  br label %.preheader

.preheader:                                       ; preds = %.preheader.preheader, %21
  %indvars.iv = phi i64 [ %18, %.preheader.preheader ], [ %22, %21 ]
  %19 = trunc nuw i64 %indvars.iv to i32
  %20 = icmp slt i32 %19, 2
  br i1 %20, label %27, label %21

21:                                               ; preds = %.preheader
  %22 = add nsw i64 %indvars.iv, -1
  %23 = getelementptr inbounds nuw i8, ptr %0, i64 %22
  %24 = load i8, ptr %23, align 1, !tbaa !11
  %25 = getelementptr inbounds nuw i8, ptr %1, i64 %22
  %26 = load i8, ptr %25, align 1, !tbaa !11
  %.not30 = icmp eq i8 %24, %26
  br i1 %.not30, label %.preheader, label %27

27:                                               ; preds = %21, %.preheader
  %spec.select = zext i1 %20 to i32
  br label %28

28:                                               ; preds = %27, %5, %9, %7, %2
  %.021 = phi i32 [ 0, %2 ], [ 0, %5 ], [ 0, %7 ], [ 0, %9 ], [ %spec.select, %27 ]
  ret i32 %.021
}